target datalayout = "e-m:e-p270:32:32-p271:32:32-p272:64:64-i64:64-i128:128-f80:128-n8:16:32:64-S128"
target triple = "x86_64-pc-linux-gnu"

%struct.nameData = type { [64 x i8] }
%struct.ScanKeyData = type { i32, i16, i16, i32, i32, %struct.FmgrInfo, i64 }
%struct.FmgrInfo = type { ptr, i32, i16, i8, i8, i8, ptr, ptr, ptr }
%struct.FormData_pg_constraint = type { i32, %struct.nameData, i32, i8, i8, i8, i8, i8, i32, i32, i32, i32, i32, i8, i8, i8, i8, i16, i8, i8 }
%struct.HeapTupleData = type { i32, %struct.ItemPointerData, i32, ptr }
%struct.ItemPointerData = type { %struct.BlockIdData, i16 }
%struct.BlockIdData = type { i16, i16 }
%struct.HeapTupleHeaderData = type { %union.anon, %struct.ItemPointerData, i16, i16, i8, [0 x i8] }
%union.anon = type { %struct.HeapTupleFields }
%struct.HeapTupleFields = type { i32, i32, %union.anon.0 }
%union.anon.0 = type { i32 }

; Function Attrs: inlinehint nounwind uwtable
define internal ptr @GETSTRUCT(ptr noundef %0) #3 {
  %2 = alloca ptr, align 8
  store ptr %0, ptr %2, align 8
  %3 = load ptr, ptr %2, align 8
  %4 = getelementptr inbounds nuw %struct.HeapTupleData, ptr %3, i32 0, i32 3
  %5 = load ptr, ptr %4, align 8
  %6 = load ptr, ptr %2, align 8
  %7 = getelementptr inbounds nuw %struct.HeapTupleData, ptr %6, i32 0, i32 3
  %8 = load ptr, ptr %7, align 8
  %9 = getelementptr inbounds nuw %struct.HeapTupleHeaderData, ptr %8, i32 0, i32 4
  %10 = load i8, ptr %9, align 2
  %11 = zext i8 %10 to i32
  %12 = sext i32 %11 to i64
  %13 = getelementptr inbounds i8, ptr %5, i64 %12
  ret ptr %13
}

; Function Attrs: inlinehint nounwind uwtable
define internal i64 @ObjectIdGetDatum(i32 noundef %0) #3 {
  %2 = alloca i32, align 4
  store i32 %0, ptr %2, align 4
  %3 = load i32, ptr %2, align 4
  %4 = zext i32 %3 to i64
  ret i64 %4
}

; Function Attrs: nounwind uwtable
define dso_local i32 @get_relation_idx_constraint_oid(i32 noundef %0, i32 noundef %1) #0 {
  %3 = alloca i32, align 4
  %4 = alloca i32, align 4
  %5 = alloca ptr, align 8
  %6 = alloca ptr, align 8
  %7 = alloca %struct.ScanKeyData, align 8
  %8 = alloca ptr, align 8
  %9 = alloca i32, align 4
  %10 = alloca ptr, align 8
  %11 = alloca i32, align 4
  store i32 %0, ptr %3, align 4
  store i32 %1, ptr %4, align 4
  call void @llvm.lifetime.start.p0(i64 8, ptr %5) #9
  call void @llvm.lifetime.start.p0(i64 8, ptr %6) #9
  call void @llvm.lifetime.start.p0(i64 72, ptr %7) #9
  call void @llvm.lifetime.start.p0(i64 8, ptr %8) #9
  call void @llvm.lifetime.start.p0(i64 4, ptr %9) #9
  store i32 0, ptr %9, align 4
  %12 = call ptr @table_open(i32 noundef 2606, i32 noundef 1)
  store ptr %12, ptr %5, align 8
  %13 = load i32, ptr %3, align 4
  %14 = call i64 @ObjectIdGetDatum(i32 noundef %13)
  call void @ScanKeyInit(ptr noundef %7, i16 noundef signext 9, i16 noundef zeroext 3, i32 noundef 184, i64 noundef %14)
  %15 = load ptr, ptr %5, align 8
  %16 = call ptr @systable_beginscan(ptr noundef %15, i32 noundef 2665, i1 noundef zeroext true, ptr noundef null, i32 noundef 1, ptr noundef %7)
  store ptr %16, ptr %6, align 8
  br label %17

17:                                               ; preds = %55, %53, %2
  %18 = load ptr, ptr %6, align 8
  %19 = call ptr @systable_getnext(ptr noundef %18)
  store ptr %19, ptr %8, align 8
  %20 = icmp ne ptr %19, null
  br i1 %20, label %21, label %56

21:                                               ; preds = %17
  call void @llvm.lifetime.start.p0(i64 8, ptr %10) #9
  %22 = load ptr, ptr %8, align 8
  %23 = call ptr @GETSTRUCT(ptr noundef %22)
  store ptr %23, ptr %10, align 8
  %24 = load ptr, ptr %10, align 8
  %25 = getelementptr inbounds nuw %struct.FormData_pg_constraint, ptr %24, i32 0, i32 3
  %26 = load i8, ptr %25, align 4
  %27 = sext i8 %26 to i32
  %28 = icmp ne i32 %27, 112
  br i1 %28, label %29, label %42

29:                                               ; preds = %21
  %30 = load ptr, ptr %10, align 8
  %31 = getelementptr inbounds nuw %struct.FormData_pg_constraint, ptr %30, i32 0, i32 3
  %32 = load i8, ptr %31, align 4
  %33 = sext i8 %32 to i32
  %34 = icmp ne i32 %33, 117
  br i1 %34, label %35, label %42

35:                                               ; preds = %29
  %36 = load ptr, ptr %10, align 8
  %37 = getelementptr inbounds nuw %struct.FormData_pg_constraint, ptr %36, i32 0, i32 3
  %38 = load i8, ptr %37, align 4
  %39 = sext i8 %38 to i32
  %40 = icmp ne i32 %39, 120
  br i1 %40, label %41, label %42

41:                                               ; preds = %35
  store i32 2, ptr %11, align 4
  br label %53, !llvm.loop !24

42:                                               ; preds = %35, %29, %21
  %43 = load ptr, ptr %10, align 8
  %44 = getelementptr inbounds nuw %struct.FormData_pg_constraint, ptr %43, i32 0, i32 10
  %45 = load i32, ptr %44, align 4
  %46 = load i32, ptr %4, align 4
  %47 = icmp eq i32 %45, %46
  br i1 %47, label %48, label %52

48:                                               ; preds = %42
  %49 = load ptr, ptr %10, align 8
  %50 = getelementptr inbounds nuw %struct.FormData_pg_constraint, ptr %49, i32 0, i32 0
  %51 = load i32, ptr %50, align 4
  store i32 %51, ptr %9, align 4
  store i32 3, ptr %11, align 4
  br label %53

52:                                               ; preds = %42
  store i32 0, ptr %11, align 4
  br label %53

53:                                               ; preds = %52, %48, %41
  call void @llvm.lifetime.end.p0(i64 8, ptr %10) #9
  %54 = load i32, ptr %11, align 4
  switch i32 %54, label %60 [
    i32 0, label %55
    i32 2, label %17
    i32 3, label %56
  ]

55:                                               ; preds = %53
  br label %17, !llvm.loop !24

56:                                               ; preds = %53, %17
  %57 = load ptr, ptr %6, align 8
  call void @systable_endscan(ptr noundef %57)
  %58 = load ptr, ptr %5, align 8
  call void @table_close(ptr noundef %58, i32 noundef 1)
  %59 = load i32, ptr %9, align 4
  store i32 1, ptr %11, align 4
  call void @llvm.lifetime.end.p0(i64 4, ptr %9) #9
  call void @llvm.lifetime.end.p0(i64 8, ptr %8) #9
  call void @llvm.lifetime.end.p0(i64 72, ptr %7) #9
  call void @llvm.lifetime.end.p0(i64 8, ptr %6) #9
  call void @llvm.lifetime.end.p0(i64 8, ptr %5) #9
  ret i32 %59

60:                                               ; preds = %53
  unreachable
}