; Function Attrs: nounwind uwtable
define dso_local i32 @get_relation_idx_constraint_oid(i32 noundef %0, i32 noundef %1) local_unnamed_addr #0 {
  %3 = alloca %struct.ScanKeyData, align 8
  call void @llvm.lifetime.start.p0(i64 72, ptr nonnull %3) #12
  %4 = tail call ptr @table_open(i32 noundef 2606, i32 noundef 1) #12
  %5 = zext i32 %0 to i64
  call void @ScanKeyInit(ptr noundef nonnull %3, i16 noundef signext 9, i16 noundef zeroext 3, i32 noundef 184, i64 noundef %5) #12
  %6 = call ptr @systable_beginscan(ptr noundef %4, i32 noundef 2665, i1 noundef zeroext true, ptr noundef null, i32 noundef 1, ptr noundef nonnull %3) #12
  %7 = call ptr @systable_getnext(ptr noundef %6) #12
  %.not23 = icmp eq ptr %7, null
  br i1 %.not23, label %.loopexit, label %.lr.ph

.lr.ph:                                           ; preds = %2, %21
  %8 = phi ptr [ %22, %21 ], [ %7, %2 ]
  %9 = getelementptr i8, ptr %8, i64 16
  %.val = load ptr, ptr %9, align 8
  %10 = getelementptr inbounds nuw i8, ptr %.val, i64 22
  %11 = load i8, ptr %10, align 2
  %12 = zext i8 %11 to i64
  %13 = getelementptr inbounds nuw i8, ptr %.val, i64 %12
  %14 = getelementptr inbounds nuw i8, ptr %13, i64 72
  %15 = load i8, ptr %14, align 4
  switch i8 %15, label %21 [
    i8 112, label %16
    i8 117, label %16
    i8 120, label %16
  ], !llvm.loop !22

16:                                               ; preds = %.lr.ph, %.lr.ph, %.lr.ph
  %17 = getelementptr inbounds nuw i8, ptr %13, i64 88
  %18 = load i32, ptr %17, align 4
  %19 = icmp eq i32 %18, %1
  br i1 %19, label %.thread, label %21

.thread:                                          ; preds = %16
  %20 = load i32, ptr %13, align 4
  br label %.loopexit

21:                                               ; preds = %16, %.lr.ph
  %22 = call ptr @systable_getnext(ptr noundef %6) #12
  %.not = icmp eq ptr %22, null
  br i1 %.not, label %.loopexit, label %.lr.ph

.loopexit:                                        ; preds = %21, %2, %.thread
  %.1 = phi i32 [ %20, %.thread ], [ 0, %2 ], [ 0, %21 ]
  call void @systable_endscan(ptr noundef %6) #12
  call void @table_close(ptr noundef %4, i32 noundef 1) #12
  call void @llvm.lifetime.end.p0(i64 72, ptr nonnull %3) #12
  ret i32 %.1
}